target datalayout = "e-m:e-p270:32:32-p271:32:32-p272:64:64-i64:64-i128:128-f80:128-n8:16:32:64-S128"
target triple = "x86_64-pc-linux-gnu"

%"class.cv::videostab::FastMarchingMethod" = type <{ float, [4 x i8], %"class.cv::Mat_", %"class.cv::Mat_.0", %"class.cv::Mat_.1", %"class.std::vector", i32, [4 x i8] }>
%"class.cv::Mat_" = type { %"class.cv::Mat" }
%"class.cv::Mat" = type { i32, i32, i32, i32, ptr, ptr, ptr, ptr, ptr, ptr, %"struct.cv::MatSize", %"struct.cv::MatStep" }
%"struct.cv::MatSize" = type { ptr }
%"struct.cv::MatStep" = type { ptr, [2 x i64] }
%"class.cv::Mat_.0" = type { %"class.cv::Mat" }
%"class.cv::Mat_.1" = type { %"class.cv::Mat" }
%"class.std::vector" = type { %"struct.std::_Vector_base" }
%"struct.std::_Vector_base" = type { %"struct.std::_Vector_base<cv::videostab::FastMarchingMethod::DXY, std::allocator<cv::videostab::FastMarchingMethod::DXY>>::_Vector_impl" }
%"struct.std::_Vector_base<cv::videostab::FastMarchingMethod::DXY, std::allocator<cv::videostab::FastMarchingMethod::DXY>>::_Vector_impl" = type { %"struct.std::_Vector_base<cv::videostab::FastMarchingMethod::DXY, std::allocator<cv::videostab::FastMarchingMethod::DXY>>::_Vector_impl_data" }
%"struct.std::_Vector_base<cv::videostab::FastMarchingMethod::DXY, std::allocator<cv::videostab::FastMarchingMethod::DXY>>::_Vector_impl_data" = type { ptr, ptr, ptr }
%"struct.cv::videostab::FastMarchingMethod::DXY" = type { float, i32, i32 }

; Function Attrs: inlinehint mustprogress nounwind uwtable
define linkonce_odr hidden noundef nonnull align 4 dereferenceable(4) ptr @_ZN2cv4Mat_IiEclEii(ptr noundef nonnull align 8 dereferenceable(96) %0, i32 noundef %1, i32 noundef %2) #6 comdat align 2 {
  %4 = alloca ptr, align 8
  %5 = alloca i32, align 4
  %6 = alloca i32, align 4
  store ptr %0, ptr %4, align 8, !tbaa !56
  store i32 %1, ptr %5, align 4, !tbaa !8
  store i32 %2, ptr %6, align 4, !tbaa !8
  %7 = load ptr, ptr %4, align 8
  %8 = getelementptr inbounds nuw %"class.cv::Mat", ptr %7, i32 0, i32 4
  %9 = load ptr, ptr %8, align 8, !tbaa !35
  %10 = getelementptr inbounds nuw %"class.cv::Mat", ptr %7, i32 0, i32 11
  %11 = getelementptr inbounds nuw %"struct.cv::MatStep", ptr %10, i32 0, i32 0
  %12 = load ptr, ptr %11, align 8, !tbaa !36
  %13 = getelementptr inbounds i64, ptr %12, i64 0
  %14 = load i64, ptr %13, align 8, !tbaa !37
  %15 = load i32, ptr %5, align 4, !tbaa !8
  %16 = sext i32 %15 to i64
  %17 = mul i64 %14, %16
  %18 = getelementptr inbounds nuw i8, ptr %9, i64 %17
  %19 = load i32, ptr %6, align 4, !tbaa !8
  %20 = sext i32 %19 to i64
  %21 = getelementptr inbounds i32, ptr %18, i64 %20
  ret ptr %21
}

; Function Attrs: inlinehint mustprogress nounwind uwtable
define linkonce_odr void @_ZSt4swapIN2cv9videostab18FastMarchingMethod3DXYEENSt9enable_ifIXsr6__and_ISt6__not_ISt15__is_tuple_likeIT_EESt21is_move_constructibleIS7_ESt18is_move_assignableIS7_EEE5valueEvE4typeERS7_SG_(ptr noundef nonnull align 4 dereferenceable(12) %0, ptr noundef nonnull align 4 dereferenceable(12) %1) #6 comdat {
  %3 = alloca ptr, align 8
  %4 = alloca ptr, align 8
  %5 = alloca %"struct.cv::videostab::FastMarchingMethod::DXY", align 4
  store ptr %0, ptr %3, align 8, !tbaa !46
  store ptr %1, ptr %4, align 8, !tbaa !46
  call void @llvm.lifetime.start.p0(i64 12, ptr %5) #3
  %6 = load ptr, ptr %3, align 8, !tbaa !46
  call void @llvm.memcpy.p0.p0.i64(ptr align 4 %5, ptr align 4 %6, i64 12, i1 false), !tbaa.struct !52
  %7 = load ptr, ptr %4, align 8, !tbaa !46
  %8 = load ptr, ptr %3, align 8, !tbaa !46
  call void @llvm.memcpy.p0.p0.i64(ptr align 4 %8, ptr align 4 %7, i64 12, i1 false), !tbaa.struct !52
  %9 = load ptr, ptr %4, align 8, !tbaa !46
  call void @llvm.memcpy.p0.p0.i64(ptr align 4 %9, ptr align 4 %5, i64 12, i1 false), !tbaa.struct !52
  call void @llvm.lifetime.end.p0(i64 12, ptr %5) #3
  ret void
}

; Function Attrs: inlinehint mustprogress nounwind uwtable
define linkonce_odr void @_ZSt4swapIiENSt9enable_ifIXsr6__and_ISt6__not_ISt15__is_tuple_likeIT_EESt21is_move_constructibleIS3_ESt18is_move_assignableIS3_EEE5valueEvE4typeERS3_SC_(ptr noundef nonnull align 4 dereferenceable(4) %0, ptr noundef nonnull align 4 dereferenceable(4) %1) #6 comdat {
  %3 = alloca ptr, align 8
  %4 = alloca ptr, align 8
  %5 = alloca i32, align 4
  store ptr %0, ptr %3, align 8, !tbaa !49
  store ptr %1, ptr %4, align 8, !tbaa !49
  call void @llvm.lifetime.start.p0(i64 4, ptr %5) #3
  %6 = load ptr, ptr %3, align 8, !tbaa !49
  %7 = load i32, ptr %6, align 4, !tbaa !8
  store i32 %7, ptr %5, align 4, !tbaa !8
  %8 = load ptr, ptr %4, align 8, !tbaa !49
  %9 = load i32, ptr %8, align 4, !tbaa !8
  %10 = load ptr, ptr %3, align 8, !tbaa !49
  store i32 %9, ptr %10, align 4, !tbaa !8
  %11 = load i32, ptr %5, align 4, !tbaa !8
  %12 = load ptr, ptr %4, align 8, !tbaa !49
  store i32 %11, ptr %12, align 4, !tbaa !8
  call void @llvm.lifetime.end.p0(i64 4, ptr %5) #3
  ret void
}

; Function Attrs: mustprogress uwtable
define linkonce_odr hidden noundef nonnull align 4 dereferenceable(4) ptr @_ZN2cv9videostab18FastMarchingMethod7indexOfERKNS1_3DXYE(ptr noundef nonnull align 8 dereferenceable(324) %0, ptr noundef nonnull align 4 dereferenceable(12) %1) #4 comdat align 2 {
  %3 = alloca ptr, align 8
  %4 = alloca ptr, align 8
  store ptr %0, ptr %3, align 8, !tbaa !3
  store ptr %1, ptr %4, align 8, !tbaa !46
  %5 = load ptr, ptr %3, align 8
  %6 = getelementptr inbounds nuw %"class.cv::videostab::FastMarchingMethod", ptr %5, i32 0, i32 4
  %7 = load ptr, ptr %4, align 8, !tbaa !46
  %8 = getelementptr inbounds nuw %"struct.cv::videostab::FastMarchingMethod::DXY", ptr %7, i32 0, i32 2
  %9 = load i32, ptr %8, align 4, !tbaa !50
  %10 = load ptr, ptr %4, align 8, !tbaa !46
  %11 = getelementptr inbounds nuw %"struct.cv::videostab::FastMarchingMethod::DXY", ptr %10, i32 0, i32 1
  %12 = load i32, ptr %11, align 4, !tbaa !51
  %13 = call noundef nonnull align 4 dereferenceable(4) ptr @_ZN2cv4Mat_IiEclEii(ptr noundef nonnull align 8 dereferenceable(96) %6, i32 noundef %9, i32 noundef %12)
  ret ptr %13
}

; Function Attrs: mustprogress nounwind uwtable
define linkonce_odr hidden noundef zeroext i1 @_ZNK2cv9videostab18FastMarchingMethod3DXYltERKS2_(ptr noundef nonnull align 4 dereferenceable(12) %0, ptr noundef nonnull align 4 dereferenceable(12) %1) #7 comdat align 2 {
  %3 = alloca ptr, align 8
  %4 = alloca ptr, align 8
  store ptr %0, ptr %3, align 8, !tbaa !46
  store ptr %1, ptr %4, align 8, !tbaa !46
  %5 = load ptr, ptr %3, align 8
  %6 = getelementptr inbounds nuw %"struct.cv::videostab::FastMarchingMethod::DXY", ptr %5, i32 0, i32 0
  %7 = load float, ptr %6, align 4, !tbaa !47
  %8 = load ptr, ptr %4, align 8, !tbaa !46
  %9 = getelementptr inbounds nuw %"struct.cv::videostab::FastMarchingMethod::DXY", ptr %8, i32 0, i32 0
  %10 = load float, ptr %9, align 4, !tbaa !47
  %11 = fcmp olt float %7, %10
  ret i1 %11
}

; Function Attrs: mustprogress nounwind uwtable
define linkonce_odr hidden noundef nonnull align 4 dereferenceable(12) ptr @_ZNSt6vectorIN2cv9videostab18FastMarchingMethod3DXYESaIS3_EEixEm(ptr noundef nonnull align 8 dereferenceable(24) %0, i64 noundef %1) #7 comdat align 2 {
  %3 = alloca ptr, align 8
  %4 = alloca i64, align 8
  store ptr %0, ptr %3, align 8, !tbaa !43
  store i64 %1, ptr %4, align 8, !tbaa !37
  %5 = load ptr, ptr %3, align 8
  %6 = getelementptr inbounds nuw %"struct.std::_Vector_base", ptr %5, i32 0, i32 0
  %7 = getelementptr inbounds nuw %"struct.std::_Vector_base<cv::videostab::FastMarchingMethod::DXY, std::allocator<cv::videostab::FastMarchingMethod::DXY>>::_Vector_impl_data", ptr %6, i32 0, i32 0
  %8 = load ptr, ptr %7, align 8, !tbaa !45
  %9 = load i64, ptr %4, align 8, !tbaa !37
  %10 = getelementptr inbounds nuw %"struct.cv::videostab::FastMarchingMethod::DXY", ptr %8, i64 %9
  ret ptr %10
}

; Function Attrs: mustprogress uwtable
define void @_ZN2cv9videostab18FastMarchingMethod8heapDownEi(ptr noundef nonnull align 8 dereferenceable(324) %0, i32 noundef %1) #4 align 2 {
  %3 = alloca ptr, align 8
  %4 = alloca i32, align 4
  %5 = alloca i32, align 4
  %6 = alloca i32, align 4
  %7 = alloca i32, align 4
  store ptr %0, ptr %3, align 8, !tbaa !3
  store i32 %1, ptr %4, align 4, !tbaa !8
  %8 = load ptr, ptr %3, align 8
  call void @llvm.lifetime.start.p0(i64 4, ptr %5) #3
  call void @llvm.lifetime.start.p0(i64 4, ptr %6) #3
  call void @llvm.lifetime.start.p0(i64 4, ptr %7) #3
  br label %9

9:                                                ; preds = %75, %2
  %10 = load i32, ptr %4, align 4, !tbaa !8
  %11 = mul nsw i32 2, %10
  %12 = add nsw i32 %11, 1
  store i32 %12, ptr %5, align 4, !tbaa !8
  %13 = load i32, ptr %4, align 4, !tbaa !8
  %14 = mul nsw i32 2, %13
  %15 = add nsw i32 %14, 2
  store i32 %15, ptr %6, align 4, !tbaa !8
  %16 = load i32, ptr %4, align 4, !tbaa !8
  store i32 %16, ptr %7, align 4, !tbaa !8
  %17 = load i32, ptr %5, align 4, !tbaa !8
  %18 = getelementptr inbounds nuw %"class.cv::videostab::FastMarchingMethod", ptr %8, i32 0, i32 6
  %19 = load i32, ptr %18, align 8, !tbaa !53
  %20 = icmp slt i32 %17, %19
  br i1 %20, label %21, label %33

21:                                               ; preds = %9
  %22 = getelementptr inbounds nuw %"class.cv::videostab::FastMarchingMethod", ptr %8, i32 0, i32 5
  %23 = load i32, ptr %5, align 4, !tbaa !8
  %24 = sext i32 %23 to i64
  %25 = call noundef nonnull align 4 dereferenceable(12) ptr @_ZNSt6vectorIN2cv9videostab18FastMarchingMethod3DXYESaIS3_EEixEm(ptr noundef nonnull align 8 dereferenceable(24) %22, i64 noundef %24) #3
  %26 = getelementptr inbounds nuw %"class.cv::videostab::FastMarchingMethod", ptr %8, i32 0, i32 5
  %27 = load i32, ptr %7, align 4, !tbaa !8
  %28 = sext i32 %27 to i64
  %29 = call noundef nonnull align 4 dereferenceable(12) ptr @_ZNSt6vectorIN2cv9videostab18FastMarchingMethod3DXYESaIS3_EEixEm(ptr noundef nonnull align 8 dereferenceable(24) %26, i64 noundef %28) #3
  %30 = call noundef zeroext i1 @_ZNK2cv9videostab18FastMarchingMethod3DXYltERKS2_(ptr noundef nonnull align 4 dereferenceable(12) %25, ptr noundef nonnull align 4 dereferenceable(12) %29)
  br i1 %30, label %31, label %33

31:                                               ; preds = %21
  %32 = load i32, ptr %5, align 4, !tbaa !8
  store i32 %32, ptr %7, align 4, !tbaa !8
  br label %33

33:                                               ; preds = %31, %21, %9
  %34 = load i32, ptr %6, align 4, !tbaa !8
  %35 = getelementptr inbounds nuw %"class.cv::videostab::FastMarchingMethod", ptr %8, i32 0, i32 6
  %36 = load i32, ptr %35, align 8, !tbaa !53
  %37 = icmp slt i32 %34, %36
  br i1 %37, label %38, label %50

38:                                               ; preds = %33
  %39 = getelementptr inbounds nuw %"class.cv::videostab::FastMarchingMethod", ptr %8, i32 0, i32 5
  %40 = load i32, ptr %6, align 4, !tbaa !8
  %41 = sext i32 %40 to i64
  %42 = call noundef nonnull align 4 dereferenceable(12) ptr @_ZNSt6vectorIN2cv9videostab18FastMarchingMethod3DXYESaIS3_EEixEm(ptr noundef nonnull align 8 dereferenceable(24) %39, i64 noundef %41) #3
  %43 = getelementptr inbounds nuw %"class.cv::videostab::FastMarchingMethod", ptr %8, i32 0, i32 5
  %44 = load i32, ptr %7, align 4, !tbaa !8
  %45 = sext i32 %44 to i64
  %46 = call noundef nonnull align 4 dereferenceable(12) ptr @_ZNSt6vectorIN2cv9videostab18FastMarchingMethod3DXYESaIS3_EEixEm(ptr noundef nonnull align 8 dereferenceable(24) %43, i64 noundef %45) #3
  %47 = call noundef zeroext i1 @_ZNK2cv9videostab18FastMarchingMethod3DXYltERKS2_(ptr noundef nonnull align 4 dereferenceable(12) %42, ptr noundef nonnull align 4 dereferenceable(12) %46)
  br i1 %47, label %48, label %50

48:                                               ; preds = %38
  %49 = load i32, ptr %6, align 4, !tbaa !8
  store i32 %49, ptr %7, align 4, !tbaa !8
  br label %50

50:                                               ; preds = %48, %38, %33
  %51 = load i32, ptr %7, align 4, !tbaa !8
  %52 = load i32, ptr %4, align 4, !tbaa !8
  %53 = icmp eq i32 %51, %52
  br i1 %53, label %54, label %55

54:                                               ; preds = %50
  br label %76

55:                                               ; preds = %50
  %56 = getelementptr inbounds nuw %"class.cv::videostab::FastMarchingMethod", ptr %8, i32 0, i32 5
  %57 = load i32, ptr %4, align 4, !tbaa !8
  %58 = sext i32 %57 to i64
  %59 = call noundef nonnull align 4 dereferenceable(12) ptr @_ZNSt6vectorIN2cv9videostab18FastMarchingMethod3DXYESaIS3_EEixEm(ptr noundef nonnull align 8 dereferenceable(24) %56, i64 noundef %58) #3
  %60 = call noundef nonnull align 4 dereferenceable(4) ptr @_ZN2cv9videostab18FastMarchingMethod7indexOfERKNS1_3DXYE(ptr noundef nonnull align 8 dereferenceable(324) %8, ptr noundef nonnull align 4 dereferenceable(12) %59)
  %61 = getelementptr inbounds nuw %"class.cv::videostab::FastMarchingMethod", ptr %8, i32 0, i32 5
  %62 = load i32, ptr %7, align 4, !tbaa !8
  %63 = sext i32 %62 to i64
  %64 = call noundef nonnull align 4 dereferenceable(12) ptr @_ZNSt6vectorIN2cv9videostab18FastMarchingMethod3DXYESaIS3_EEixEm(ptr noundef nonnull align 8 dereferenceable(24) %61, i64 noundef %63) #3
  %65 = call noundef nonnull align 4 dereferenceable(4) ptr @_ZN2cv9videostab18FastMarchingMethod7indexOfERKNS1_3DXYE(ptr noundef nonnull align 8 dereferenceable(324) %8, ptr noundef nonnull align 4 dereferenceable(12) %64)
  call void @_ZSt4swapIiENSt9enable_ifIXsr6__and_ISt6__not_ISt15__is_tuple_likeIT_EESt21is_move_constructibleIS3_ESt18is_move_assignableIS3_EEE5valueEvE4typeERS3_SC_(ptr noundef nonnull align 4 dereferenceable(4) %60, ptr noundef nonnull align 4 dereferenceable(4) %65) #3
  %66 = getelementptr inbounds nuw %"class.cv::videostab::FastMarchingMethod", ptr %8, i32 0, i32 5
  %67 = load i32, ptr %4, align 4, !tbaa !8
  %68 = sext i32 %67 to i64
  %69 = call noundef nonnull align 4 dereferenceable(12) ptr @_ZNSt6vectorIN2cv9videostab18FastMarchingMethod3DXYESaIS3_EEixEm(ptr noundef nonnull align 8 dereferenceable(24) %66, i64 noundef %68) #3
  %70 = getelementptr inbounds nuw %"class.cv::videostab::FastMarchingMethod", ptr %8, i32 0, i32 5
  %71 = load i32, ptr %7, align 4, !tbaa !8
  %72 = sext i32 %71 to i64
  %73 = call noundef nonnull align 4 dereferenceable(12) ptr @_ZNSt6vectorIN2cv9videostab18FastMarchingMethod3DXYESaIS3_EEixEm(ptr noundef nonnull align 8 dereferenceable(24) %70, i64 noundef %72) #3
  call void @_ZSt4swapIN2cv9videostab18FastMarchingMethod3DXYEENSt9enable_ifIXsr6__and_ISt6__not_ISt15__is_tuple_likeIT_EESt21is_move_constructibleIS7_ESt18is_move_assignableIS7_EEE5valueEvE4typeERS7_SG_(ptr noundef nonnull align 4 dereferenceable(12) %69, ptr noundef nonnull align 4 dereferenceable(12) %73) #3
  %74 = load i32, ptr %7, align 4, !tbaa !8
  store i32 %74, ptr %4, align 4, !tbaa !8
  br label %75

75:                                               ; preds = %55
  br label %9, !llvm.loop !54

76:                                               ; preds = %54
  call void @llvm.lifetime.end.p0(i64 4, ptr %7) #3
  call void @llvm.lifetime.end.p0(i64 4, ptr %6) #3
  call void @llvm.lifetime.end.p0(i64 4, ptr %5) #3
  ret void
}