; Function Attrs: mustprogress nofree norecurse nosync nounwind memory(readwrite, inaccessiblemem: none) uwtable
define void @_ZN2cv9videostab18FastMarchingMethod8heapDownEi(ptr noundef nonnull readonly align 8 captures(none) dereferenceable(324) %0, i32 noundef %1) local_unnamed_addr #5 align 2 {
  %3 = alloca %"struct.cv::videostab::FastMarchingMethod::DXY", align 4
  %4 = getelementptr inbounds nuw i8, ptr %0, i64 320
  %5 = getelementptr inbounds nuw i8, ptr %0, i64 296
  %6 = getelementptr inbounds nuw i8, ptr %0, i64 216
  %7 = getelementptr inbounds nuw i8, ptr %0, i64 272
  br label %8

8:                                                ; preds = %36, %2
  %.018 = phi i32 [ %1, %2 ], [ %.1, %36 ]
  %9 = shl nsw i32 %.018, 1
  %10 = or disjoint i32 %9, 1
  %11 = add nsw i32 %9, 2
  %12 = load i32, ptr %4, align 8, !tbaa !43
  %13 = icmp slt i32 %10, %12
  br i1 %13, label %14, label %23

14:                                               ; preds = %8
  %15 = sext i32 %10 to i64
  %16 = load ptr, ptr %5, align 8, !tbaa !35
  %17 = getelementptr inbounds nuw %"struct.cv::videostab::FastMarchingMethod::DXY", ptr %16, i64 %15
  %18 = sext i32 %.018 to i64
  %19 = getelementptr inbounds nuw %"struct.cv::videostab::FastMarchingMethod::DXY", ptr %16, i64 %18
  %20 = load float, ptr %17, align 4, !tbaa !36
  %21 = load float, ptr %19, align 4, !tbaa !36
  %22 = fcmp olt float %20, %21
  %spec.select = select i1 %22, i32 %10, i32 %.018
  br label %23

23:                                               ; preds = %14, %8
  %.0 = phi i32 [ %.018, %8 ], [ %spec.select, %14 ]
  %24 = icmp slt i32 %11, %12
  br i1 %24, label %25, label %34

25:                                               ; preds = %23
  %26 = sext i32 %11 to i64
  %27 = load ptr, ptr %5, align 8, !tbaa !35
  %28 = getelementptr inbounds nuw %"struct.cv::videostab::FastMarchingMethod::DXY", ptr %27, i64 %26
  %29 = sext i32 %.0 to i64
  %30 = getelementptr inbounds nuw %"struct.cv::videostab::FastMarchingMethod::DXY", ptr %27, i64 %29
  %31 = load float, ptr %28, align 4, !tbaa !36
  %32 = load float, ptr %30, align 4, !tbaa !36
  %33 = fcmp olt float %31, %32
  %spec.select21 = select i1 %33, i32 %11, i32 %.0
  br label %34

34:                                               ; preds = %25, %23
  %.1 = phi i32 [ %.0, %23 ], [ %spec.select21, %25 ]
  %35 = icmp eq i32 %.1, %.018
  br i1 %35, label %65, label %36

36:                                               ; preds = %34
  %37 = sext i32 %.018 to i64
  %38 = load ptr, ptr %5, align 8, !tbaa !35
  %39 = getelementptr inbounds nuw %"struct.cv::videostab::FastMarchingMethod::DXY", ptr %38, i64 %37
  %40 = getelementptr inbounds nuw i8, ptr %39, i64 8
  %41 = load i32, ptr %40, align 4, !tbaa !38
  %42 = getelementptr inbounds nuw i8, ptr %39, i64 4
  %43 = load i32, ptr %42, align 4, !tbaa !39
  %44 = load ptr, ptr %6, align 8, !tbaa !28
  %45 = load ptr, ptr %7, align 8, !tbaa !29
  %46 = load i64, ptr %45, align 8, !tbaa !30
  %47 = sext i32 %41 to i64
  %48 = mul i64 %46, %47
  %49 = getelementptr inbounds nuw i8, ptr %44, i64 %48
  %50 = sext i32 %43 to i64
  %51 = getelementptr inbounds i32, ptr %49, i64 %50
  %52 = sext i32 %.1 to i64
  %53 = getelementptr inbounds nuw %"struct.cv::videostab::FastMarchingMethod::DXY", ptr %38, i64 %52
  %54 = getelementptr inbounds nuw i8, ptr %53, i64 8
  %55 = load i32, ptr %54, align 4, !tbaa !38
  %56 = getelementptr inbounds nuw i8, ptr %53, i64 4
  %57 = load i32, ptr %56, align 4, !tbaa !39
  %58 = sext i32 %55 to i64
  %59 = mul i64 %46, %58
  %60 = getelementptr inbounds nuw i8, ptr %44, i64 %59
  %61 = sext i32 %57 to i64
  %62 = getelementptr inbounds i32, ptr %60, i64 %61
  %63 = load i32, ptr %51, align 4, !tbaa !34
  %64 = load i32, ptr %62, align 4, !tbaa !34
  store i32 %64, ptr %51, align 4, !tbaa !34
  store i32 %63, ptr %62, align 4, !tbaa !34
  call void @llvm.lifetime.start.p0(i64 12, ptr nonnull %3)
  call void @llvm.memcpy.p0.p0.i64(ptr noundef nonnull align 4 dereferenceable(12) %3, ptr noundef nonnull align 4 dereferenceable(12) %39, i64 12, i1 false), !tbaa.struct !40
  tail call void @llvm.memcpy.p0.p0.i64(ptr noundef nonnull align 4 dereferenceable(12) %39, ptr noundef nonnull align 4 dereferenceable(12) %53, i64 12, i1 false), !tbaa.struct !40
  call void @llvm.memcpy.p0.p0.i64(ptr noundef nonnull align 4 dereferenceable(12) %53, ptr noundef nonnull align 4 dereferenceable(12) %3, i64 12, i1 false), !tbaa.struct !40
  call void @llvm.lifetime.end.p0(i64 12, ptr nonnull %3)
  br label %8, !llvm.loop !44

65:                                               ; preds = %34
  ret void
}